target datalayout = "e-m:e-p270:32:32-p271:32:32-p272:64:64-i64:64-i128:128-f80:128-n8:16:32:64-S128"
target triple = "x86_64-pc-linux-gnu"

%struct.Gia_Man_t_ = type { ptr, ptr, i32, i32, i32, i32, ptr, ptr, i32, i32, i32, ptr, ptr, %struct.Vec_Int_t_, %struct.Vec_Int_t_, i32, i32, i32, %struct.Vec_Int_t_, ptr, ptr, ptr, i32, i32, i32, i32, ptr, ptr, ptr, ptr, ptr, i32, i32, ptr, i32, ptr, ptr, ptr, ptr, ptr, ptr, ptr, ptr, ptr, ptr, ptr, ptr, ptr, ptr, ptr, ptr, ptr, ptr, %struct.Vec_Int_t_, %struct.Vec_Int_t_, ptr, ptr, ptr, ptr, ptr, ptr, ptr, ptr, ptr, ptr, ptr, ptr, ptr, ptr, ptr, ptr, ptr, ptr, ptr, ptr, ptr, i32, float, float, ptr, ptr, i32, ptr, ptr, ptr, ptr, ptr, ptr, ptr, ptr, ptr, ptr, ptr, ptr, ptr, ptr, ptr, i64, i64, ptr, ptr, i32, i32, i32, i32, i32, i32, i32, i32, i32, i32, i32, i32, ptr, ptr, ptr, ptr, ptr, ptr, ptr, ptr, i32, i32, i32, ptr, i32, i32, ptr, ptr, ptr, ptr, ptr, ptr, i32, i32, ptr, %struct.Vec_Int_t_, %struct.Vec_Int_t_, %struct.Vec_Int_t_, ptr, ptr, ptr, i32, i32, i32, i32, ptr, ptr, ptr, ptr, ptr }
%struct.Vec_Int_t_ = type { i32, i32, ptr }
%struct.Gia_Rpr_t_ = type { i32 }
%struct.Gia_Obj_t_ = type <{ i64, i32 }>

; Function Attrs: inlinehint nounwind uwtable
define internal ptr @Gia_ManObj(ptr noundef %0, i32 noundef %1) #2 {
  %3 = alloca ptr, align 8
  %4 = alloca i32, align 4
  store ptr %0, ptr %3, align 8, !tbaa !3
  store i32 %1, ptr %4, align 4, !tbaa !30
  %5 = load ptr, ptr %3, align 8, !tbaa !3
  %6 = getelementptr inbounds nuw %struct.Gia_Man_t_, ptr %5, i32 0, i32 6
  %7 = load ptr, ptr %6, align 8, !tbaa !36
  %8 = load i32, ptr %4, align 4, !tbaa !30
  %9 = sext i32 %8 to i64
  %10 = getelementptr inbounds %struct.Gia_Obj_t_, ptr %7, i64 %9
  ret ptr %10
}

; Function Attrs: inlinehint nounwind uwtable
define internal i32 @Gia_ManObjNum(ptr noundef %0) #2 {
  %2 = alloca ptr, align 8
  store ptr %0, ptr %2, align 8, !tbaa !3
  %3 = load ptr, ptr %2, align 8, !tbaa !3
  %4 = getelementptr inbounds nuw %struct.Gia_Man_t_, ptr %3, i32 0, i32 4
  %5 = load i32, ptr %4, align 8, !tbaa !31
  ret i32 %5
}

; Function Attrs: nounwind uwtable
define void @Cec_ManTransformClasses(ptr noundef %0) #0 {
  %2 = alloca ptr, align 8
  %3 = alloca ptr, align 8
  %4 = alloca i32, align 4
  store ptr %0, ptr %2, align 8, !tbaa !3
  call void @llvm.lifetime.start.p0(i64 8, ptr %3) #11
  call void @llvm.lifetime.start.p0(i64 4, ptr %4) #11
  %5 = load ptr, ptr %2, align 8, !tbaa !3
  %6 = getelementptr inbounds nuw %struct.Gia_Man_t_, ptr %5, i32 0, i32 27
  %7 = load ptr, ptr %6, align 8, !tbaa !8
  %8 = load ptr, ptr %2, align 8, !tbaa !3
  %9 = call i32 @Gia_ManObjNum(ptr noundef %8)
  %10 = sext i32 %9 to i64
  %11 = mul i64 4, %10
  call void @llvm.memset.p0.i64(ptr align 4 %7, i8 0, i64 %11, i1 false)
  %12 = load ptr, ptr %2, align 8, !tbaa !3
  %13 = getelementptr inbounds nuw %struct.Gia_Man_t_, ptr %12, i32 0, i32 28
  %14 = load ptr, ptr %13, align 8, !tbaa !29
  %15 = load ptr, ptr %2, align 8, !tbaa !3
  %16 = call i32 @Gia_ManObjNum(ptr noundef %15)
  %17 = sext i32 %16 to i64
  %18 = mul i64 4, %17
  call void @llvm.memset.p0.i64(ptr align 4 %14, i8 0, i64 %18, i1 false)
  store i32 0, ptr %4, align 4, !tbaa !30
  br label %19

19:                                               ; preds = %92, %1
  %20 = load i32, ptr %4, align 4, !tbaa !30
  %21 = load ptr, ptr %2, align 8, !tbaa !3
  %22 = getelementptr inbounds nuw %struct.Gia_Man_t_, ptr %21, i32 0, i32 4
  %23 = load i32, ptr %22, align 8, !tbaa !31
  %24 = icmp slt i32 %20, %23
  br i1 %24, label %25, label %30

25:                                               ; preds = %19
  %26 = load ptr, ptr %2, align 8, !tbaa !3
  %27 = load i32, ptr %4, align 4, !tbaa !30
  %28 = call ptr @Gia_ManObj(ptr noundef %26, i32 noundef %27)
  store ptr %28, ptr %3, align 8, !tbaa !32
  %29 = icmp ne ptr %28, null
  br label %30

30:                                               ; preds = %25, %19
  %31 = phi i1 [ false, %19 ], [ %29, %25 ]
  br i1 %31, label %32, label %95

32:                                               ; preds = %30
  %33 = load ptr, ptr %2, align 8, !tbaa !3
  %34 = getelementptr inbounds nuw %struct.Gia_Man_t_, ptr %33, i32 0, i32 27
  %35 = load ptr, ptr %34, align 8, !tbaa !8
  %36 = load i32, ptr %4, align 4, !tbaa !30
  %37 = sext i32 %36 to i64
  %38 = getelementptr inbounds %struct.Gia_Rpr_t_, ptr %35, i64 %37
  %39 = load i32, ptr %38, align 4
  %40 = and i32 %39, -268435456
  %41 = or i32 %40, 268435455
  store i32 %41, ptr %38, align 4
  %42 = load ptr, ptr %2, align 8, !tbaa !3
  %43 = getelementptr inbounds nuw %struct.Gia_Man_t_, ptr %42, i32 0, i32 30
  %44 = load ptr, ptr %43, align 8, !tbaa !33
  %45 = load i32, ptr %4, align 4, !tbaa !30
  %46 = sext i32 %45 to i64
  %47 = getelementptr inbounds i32, ptr %44, i64 %46
  %48 = load i32, ptr %47, align 4, !tbaa !30
  %49 = icmp ne i32 %48, 0
  br i1 %49, label %50, label %91

50:                                               ; preds = %32
  %51 = load ptr, ptr %2, align 8, !tbaa !3
  %52 = getelementptr inbounds nuw %struct.Gia_Man_t_, ptr %51, i32 0, i32 30
  %53 = load ptr, ptr %52, align 8, !tbaa !33
  %54 = load i32, ptr %4, align 4, !tbaa !30
  %55 = sext i32 %54 to i64
  %56 = getelementptr inbounds i32, ptr %53, i64 %55
  %57 = load i32, ptr %56, align 4, !tbaa !30
  %58 = load i32, ptr %4, align 4, !tbaa !30
  %59 = icmp slt i32 %57, %58
  br i1 %59, label %60, label %91

60:                                               ; preds = %50
  %61 = load ptr, ptr %2, align 8, !tbaa !3
  %62 = getelementptr inbounds nuw %struct.Gia_Man_t_, ptr %61, i32 0, i32 30
  %63 = load ptr, ptr %62, align 8, !tbaa !33
  %64 = load i32, ptr %4, align 4, !tbaa !30
  %65 = sext i32 %64 to i64
  %66 = getelementptr inbounds i32, ptr %63, i64 %65
  %67 = load i32, ptr %66, align 4, !tbaa !30
  %68 = load ptr, ptr %2, align 8, !tbaa !3
  %69 = getelementptr inbounds nuw %struct.Gia_Man_t_, ptr %68, i32 0, i32 27
  %70 = load ptr, ptr %69, align 8, !tbaa !8
  %71 = load i32, ptr %4, align 4, !tbaa !30
  %72 = sext i32 %71 to i64
  %73 = getelementptr inbounds %struct.Gia_Rpr_t_, ptr %70, i64 %72
  %74 = load i32, ptr %73, align 4
  %75 = and i32 %67, 268435455
  %76 = and i32 %74, -268435456
  %77 = or i32 %76, %75
  store i32 %77, ptr %73, align 4
  %78 = load i32, ptr %4, align 4, !tbaa !30
  %79 = load ptr, ptr %2, align 8, !tbaa !3
  %80 = getelementptr inbounds nuw %struct.Gia_Man_t_, ptr %79, i32 0, i32 28
  %81 = load ptr, ptr %80, align 8, !tbaa !29
  %82 = load ptr, ptr %2, align 8, !tbaa !3
  %83 = getelementptr inbounds nuw %struct.Gia_Man_t_, ptr %82, i32 0, i32 30
  %84 = load ptr, ptr %83, align 8, !tbaa !33
  %85 = load i32, ptr %4, align 4, !tbaa !30
  %86 = sext i32 %85 to i64
  %87 = getelementptr inbounds i32, ptr %84, i64 %86
  %88 = load i32, ptr %87, align 4, !tbaa !30
  %89 = sext i32 %88 to i64
  %90 = getelementptr inbounds i32, ptr %81, i64 %89
  store i32 %78, ptr %90, align 4, !tbaa !30
  br label %91

91:                                               ; preds = %60, %50, %32
  br label %92

92:                                               ; preds = %91
  %93 = load i32, ptr %4, align 4, !tbaa !30
  %94 = add nsw i32 %93, 1
  store i32 %94, ptr %4, align 4, !tbaa !30
  br label %19, !llvm.loop !34

95:                                               ; preds = %30
  call void @llvm.lifetime.end.p0(i64 4, ptr %4) #11
  call void @llvm.lifetime.end.p0(i64 8, ptr %3) #11
  ret void
}