; Function Attrs: nofree norecurse nosync nounwind memory(readwrite, inaccessiblemem: none) uwtable
define void @Cec_ManTransformClasses(ptr noundef readonly captures(none) %0) local_unnamed_addr #0 {
  %2 = getelementptr inbounds nuw i8, ptr %0, i64 192
  %3 = load ptr, ptr %2, align 8, !tbaa !3
  %4 = getelementptr i8, ptr %0, i64 24
  %.val = load i32, ptr %4, align 8, !tbaa !28
  %5 = sext i32 %.val to i64
  %6 = shl nsw i64 %5, 2
  tail call void @llvm.memset.p0.i64(ptr align 4 %3, i8 0, i64 %6, i1 false)
  %7 = getelementptr inbounds nuw i8, ptr %0, i64 200
  %8 = load ptr, ptr %7, align 8, !tbaa !29
  %.val25 = load i32, ptr %4, align 8, !tbaa !28
  %9 = sext i32 %.val25 to i64
  %10 = shl nsw i64 %9, 2
  tail call void @llvm.memset.p0.i64(ptr align 4 %8, i8 0, i64 %10, i1 false)
  %11 = getelementptr i8, ptr %0, i64 32
  %12 = load i32, ptr %4, align 8, !tbaa !28
  %13 = icmp sgt i32 %12, 0
  br i1 %13, label %.lr.ph, label %.critedge

.lr.ph:                                           ; preds = %1
  %14 = getelementptr inbounds nuw i8, ptr %0, i64 216
  br label %15

15:                                               ; preds = %.lr.ph, %40
  %indvars.iv = phi i64 [ 0, %.lr.ph ], [ %indvars.iv.next, %40 ]
  %.val26 = load ptr, ptr %11, align 8, !tbaa !30
  %.not = icmp eq ptr %.val26, null
  br i1 %.not, label %.critedge, label %16

16:                                               ; preds = %15
  %17 = load ptr, ptr %2, align 8, !tbaa !3
  %18 = getelementptr inbounds nuw %struct.Gia_Rpr_t_, ptr %17, i64 %indvars.iv
  %19 = load i32, ptr %18, align 4
  %20 = or i32 %19, 268435455
  store i32 %20, ptr %18, align 4
  %21 = load ptr, ptr %14, align 8, !tbaa !31
  %22 = getelementptr inbounds nuw i32, ptr %21, i64 %indvars.iv
  %23 = load i32, ptr %22, align 4, !tbaa !32
  %.not24 = icmp ne i32 %23, 0
  %24 = sext i32 %23 to i64
  %25 = icmp sgt i64 %indvars.iv, %24
  %or.cond = and i1 %.not24, %25
  br i1 %or.cond, label %26, label %40

26:                                               ; preds = %16
  %27 = load ptr, ptr %2, align 8, !tbaa !3
  %28 = getelementptr inbounds nuw %struct.Gia_Rpr_t_, ptr %27, i64 %indvars.iv
  %29 = load i32, ptr %28, align 4
  %30 = and i32 %23, 268435455
  %31 = and i32 %29, -268435456
  %32 = or disjoint i32 %31, %30
  store i32 %32, ptr %28, align 4
  %33 = load ptr, ptr %7, align 8, !tbaa !29
  %34 = load ptr, ptr %14, align 8, !tbaa !31
  %35 = getelementptr inbounds nuw i32, ptr %34, i64 %indvars.iv
  %36 = load i32, ptr %35, align 4, !tbaa !32
  %37 = sext i32 %36 to i64
  %38 = getelementptr inbounds i32, ptr %33, i64 %37
  %39 = trunc nuw nsw i64 %indvars.iv to i32
  store i32 %39, ptr %38, align 4, !tbaa !32
  br label %40

40:                                               ; preds = %16, %26
  %indvars.iv.next = add nuw nsw i64 %indvars.iv, 1
  %41 = load i32, ptr %4, align 8, !tbaa !28
  %42 = sext i32 %41 to i64
  %43 = icmp slt i64 %indvars.iv.next, %42
  br i1 %43, label %15, label %.critedge, !llvm.loop !33

.critedge:                                        ; preds = %15, %40, %1
  ret void
}